target datalayout = "e-m:e-p270:32:32-p271:32:32-p272:64:64-i64:64-i128:128-f80:128-n8:16:32:64-S128"
target triple = "x86_64-unknown-linux-gnu"

%class.pdecl.base = type <{ ptr, i32, i32, i32 }>
%class.symbol = type { ptr }
%class.ptype = type { i32, %union.anon, %class.symbol }
%union.anon = type { ptr }
%class.paccessor_decl = type { %class.pdecl.base, %class.symbol, %class.ptype }

@.str.1 = private unnamed_addr constant [2 x i8] c" \00", align 1
@.str.5 = private unnamed_addr constant [2 x i8] c")\00", align 1
@.str.11 = private unnamed_addr constant [2 x i8] c"(\00", align 1
@.str.22 = private unnamed_addr constant [5 x i8] c"null\00", align 1
@.str.23 = private unnamed_addr constant [3 x i8] c"k!\00", align 1

; Function Attrs: mustprogress uwtable
define linkonce_odr hidden noundef nonnull align 8 dereferenceable(8) ptr @_ZlsRSo6symbol(ptr noundef nonnull align 8 dereferenceable(8) %target, ptr %s.coerce) #4 comdat {
entry:
  %s = alloca %class.symbol, align 8
  %target.addr = alloca ptr, align 8
  %coerce.dive = getelementptr inbounds %class.symbol, ptr %s, i32 0, i32 0
  store ptr %s.coerce, ptr %coerce.dive, align 8
  store ptr %target, ptr %target.addr, align 8
  %m_data = getelementptr inbounds %class.symbol, ptr %s, i32 0, i32 0
  %0 = load ptr, ptr %m_data, align 8
  %1 = ptrtoint ptr %0 to i64
  %and = and i64 %1, 7
  %cmp = icmp eq i64 %and, 0
  br i1 %cmp, label %if.then, label %if.else5

if.then:                                          ; preds = %entry
  %m_data1 = getelementptr inbounds %class.symbol, ptr %s, i32 0, i32 0
  %2 = load ptr, ptr %m_data1, align 8
  %tobool = icmp ne ptr %2, null
  br i1 %tobool, label %if.then2, label %if.else

if.then2:                                         ; preds = %if.then
  %3 = load ptr, ptr %target.addr, align 8
  %m_data3 = getelementptr inbounds %class.symbol, ptr %s, i32 0, i32 0
  %4 = load ptr, ptr %m_data3, align 8
  %call = call noundef nonnull align 8 dereferenceable(8) ptr @_ZStlsISt11char_traitsIcEERSt13basic_ostreamIcT_ES5_PKc(ptr noundef nonnull align 8 dereferenceable(8) %3, ptr noundef %4)
  br label %if.end

if.else:                                          ; preds = %if.then
  %5 = load ptr, ptr %target.addr, align 8
  %call4 = call noundef nonnull align 8 dereferenceable(8) ptr @_ZStlsISt11char_traitsIcEERSt13basic_ostreamIcT_ES5_PKc(ptr noundef nonnull align 8 dereferenceable(8) %5, ptr noundef @.str.22)
  br label %if.end

if.end:                                           ; preds = %if.else, %if.then2
  br label %if.end9

if.else5:                                         ; preds = %entry
  %6 = load ptr, ptr %target.addr, align 8
  %call6 = call noundef nonnull align 8 dereferenceable(8) ptr @_ZStlsISt11char_traitsIcEERSt13basic_ostreamIcT_ES5_PKc(ptr noundef nonnull align 8 dereferenceable(8) %6, ptr noundef @.str.23)
  %m_data7 = getelementptr inbounds %class.symbol, ptr %s, i32 0, i32 0
  %7 = load ptr, ptr %m_data7, align 8
  %8 = ptrtoint ptr %7 to i64
  %shr = lshr i64 %8, 3
  %conv = trunc i64 %shr to i32
  %call8 = call noundef nonnull align 8 dereferenceable(8) ptr @_ZNSolsEi(ptr noundef nonnull align 8 dereferenceable(8) %call6, i32 noundef %conv)
  br label %if.end9

if.end9:                                          ; preds = %if.else5, %if.end
  %9 = load ptr, ptr %target.addr, align 8
  ret ptr %9
}

; Function Attrs: mustprogress uwtable
define hidden void @_ZNK14paccessor_decl7displayERSoPKPK14pdatatype_decl(ptr noundef nonnull align 8 dereferenceable(56) %this, ptr noundef nonnull align 8 dereferenceable(8) %out, ptr noundef %dts) #4 align 2 {
entry:
  %this.addr = alloca ptr, align 8
  %out.addr = alloca ptr, align 8
  %dts.addr = alloca ptr, align 8
  %agg.tmp = alloca %class.symbol, align 8
  store ptr %this, ptr %this.addr, align 8
  store ptr %out, ptr %out.addr, align 8
  store ptr %dts, ptr %dts.addr, align 8
  %this1 = load ptr, ptr %this.addr, align 8
  %0 = load ptr, ptr %out.addr, align 8
  %call = call noundef nonnull align 8 dereferenceable(8) ptr @_ZStlsISt11char_traitsIcEERSt13basic_ostreamIcT_ES5_PKc(ptr noundef nonnull align 8 dereferenceable(8) %0, ptr noundef @.str.11)
  %m_name = getelementptr inbounds %class.paccessor_decl, ptr %this1, i32 0, i32 1
  call void @llvm.memcpy.p0.p0.i64(ptr align 8 %agg.tmp, ptr align 8 %m_name, i64 8, i1 false)
  %coerce.dive = getelementptr inbounds %class.symbol, ptr %agg.tmp, i32 0, i32 0
  %1 = load ptr, ptr %coerce.dive, align 8
  %call2 = call noundef nonnull align 8 dereferenceable(8) ptr @_ZlsRSo6symbol(ptr noundef nonnull align 8 dereferenceable(8) %call, ptr %1)
  %call3 = call noundef nonnull align 8 dereferenceable(8) ptr @_ZStlsISt11char_traitsIcEERSt13basic_ostreamIcT_ES5_PKc(ptr noundef nonnull align 8 dereferenceable(8) %call2, ptr noundef @.str.1)
  %m_type = getelementptr inbounds %class.paccessor_decl, ptr %this1, i32 0, i32 2
  %2 = load ptr, ptr %out.addr, align 8
  %3 = load ptr, ptr %dts.addr, align 8
  call void @_ZNK5ptype7displayERSoPKPK14pdatatype_decl(ptr noundef nonnull align 8 dereferenceable(24) %m_type, ptr noundef nonnull align 8 dereferenceable(8) %2, ptr noundef %3)
  %4 = load ptr, ptr %out.addr, align 8
  %call4 = call noundef nonnull align 8 dereferenceable(8) ptr @_ZStlsISt11char_traitsIcEERSt13basic_ostreamIcT_ES5_PKc(ptr noundef nonnull align 8 dereferenceable(8) %4, ptr noundef @.str.5)
  ret void
}